target datalayout = "e-m:e-p270:32:32-p271:32:32-p272:64:64-i64:64-i128:128-f80:128-n8:16:32:64-S128"
target triple = "x86_64-pc-linux-gnu"

; Function Attrs: mustprogress nounwind uwtable
define internal void @_ZN5folly12_GLOBAL__N_114toLowerAscii64ERm(ptr noundef nonnull align 8 dereferenceable(8) %0) #1 {
  %2 = alloca ptr, align 8
  %3 = alloca i64, align 8
  store ptr %0, ptr %2, align 8, !tbaa !73
  call void @llvm.lifetime.start.p0(i64 8, ptr %3) #27
  %4 = load ptr, ptr %2, align 8, !tbaa !73
  %5 = load i64, ptr %4, align 8, !tbaa !24
  %6 = and i64 %5, 9187201950435737471
  store i64 %6, ptr %3, align 8, !tbaa !24
  %7 = load i64, ptr %3, align 8, !tbaa !24
  %8 = add i64 %7, 2676586395008836901
  store i64 %8, ptr %3, align 8, !tbaa !24
  %9 = load i64, ptr %3, align 8, !tbaa !24
  %10 = and i64 %9, 9187201950435737471
  store i64 %10, ptr %3, align 8, !tbaa !24
  %11 = load i64, ptr %3, align 8, !tbaa !24
  %12 = add i64 %11, 1880844493789993498
  store i64 %12, ptr %3, align 8, !tbaa !24
  %13 = load ptr, ptr %2, align 8, !tbaa !73
  %14 = load i64, ptr %13, align 8, !tbaa !24
  %15 = xor i64 %14, -1
  %16 = load i64, ptr %3, align 8, !tbaa !24
  %17 = and i64 %16, %15
  store i64 %17, ptr %3, align 8, !tbaa !24
  %18 = load i64, ptr %3, align 8, !tbaa !24
  %19 = lshr i64 %18, 2
  store i64 %19, ptr %3, align 8, !tbaa !24
  %20 = load i64, ptr %3, align 8, !tbaa !24
  %21 = and i64 %20, 2314885530818453536
  store i64 %21, ptr %3, align 8, !tbaa !24
  %22 = load i64, ptr %3, align 8, !tbaa !24
  %23 = load ptr, ptr %2, align 8, !tbaa !73
  %24 = load i64, ptr %23, align 8, !tbaa !24
  %25 = add i64 %24, %22
  store i64 %25, ptr %23, align 8, !tbaa !24
  call void @llvm.lifetime.end.p0(i64 8, ptr %3) #27
  ret void
}

; Function Attrs: mustprogress nounwind uwtable
define internal void @_ZN5folly12_GLOBAL__N_114toLowerAscii32ERj(ptr noundef nonnull align 4 dereferenceable(4) %0) #1 {
  %2 = alloca ptr, align 8
  %3 = alloca i32, align 4
  store ptr %0, ptr %2, align 8, !tbaa !224
  call void @llvm.lifetime.start.p0(i64 4, ptr %3) #27
  %4 = load ptr, ptr %2, align 8, !tbaa !224
  %5 = load i32, ptr %4, align 4, !tbaa !48
  %6 = and i32 %5, 2139062143
  store i32 %6, ptr %3, align 4, !tbaa !48
  %7 = load i32, ptr %3, align 4, !tbaa !48
  %8 = add i32 %7, 623191333
  store i32 %8, ptr %3, align 4, !tbaa !48
  %9 = load i32, ptr %3, align 4, !tbaa !48
  %10 = and i32 %9, 2139062143
  store i32 %10, ptr %3, align 4, !tbaa !48
  %11 = load i32, ptr %3, align 4, !tbaa !48
  %12 = add i32 %11, 437918234
  store i32 %12, ptr %3, align 4, !tbaa !48
  %13 = load ptr, ptr %2, align 8, !tbaa !224
  %14 = load i32, ptr %13, align 4, !tbaa !48
  %15 = xor i32 %14, -1
  %16 = load i32, ptr %3, align 4, !tbaa !48
  %17 = and i32 %16, %15
  store i32 %17, ptr %3, align 4, !tbaa !48
  %18 = load i32, ptr %3, align 4, !tbaa !48
  %19 = lshr i32 %18, 2
  store i32 %19, ptr %3, align 4, !tbaa !48
  %20 = load i32, ptr %3, align 4, !tbaa !48
  %21 = and i32 %20, 538976288
  store i32 %21, ptr %3, align 4, !tbaa !48
  %22 = load i32, ptr %3, align 4, !tbaa !48
  %23 = load ptr, ptr %2, align 8, !tbaa !224
  %24 = load i32, ptr %23, align 4, !tbaa !48
  %25 = add i32 %24, %22
  store i32 %25, ptr %23, align 4, !tbaa !48
  call void @llvm.lifetime.end.p0(i64 4, ptr %3) #27
  ret void
}

; Function Attrs: mustprogress nounwind uwtable
define internal void @_ZN5folly12_GLOBAL__N_113toLowerAscii8ERc(ptr noundef nonnull align 1 dereferenceable(1) %0) #1 {
  %2 = alloca ptr, align 8
  %3 = alloca i8, align 1
  store ptr %0, ptr %2, align 8, !tbaa !14
  call void @llvm.lifetime.start.p0(i64 1, ptr %3) #27
  %4 = load ptr, ptr %2, align 8, !tbaa !14
  %5 = load i8, ptr %4, align 1, !tbaa !7
  %6 = sext i8 %5 to i32
  %7 = and i32 %6, 127
  %8 = trunc i32 %7 to i8
  store i8 %8, ptr %3, align 1, !tbaa !7
  %9 = load i8, ptr %3, align 1, !tbaa !7
  %10 = zext i8 %9 to i32
  %11 = add nsw i32 %10, 37
  %12 = trunc i32 %11 to i8
  store i8 %12, ptr %3, align 1, !tbaa !7
  %13 = load i8, ptr %3, align 1, !tbaa !7
  %14 = zext i8 %13 to i32
  %15 = and i32 %14, 127
  %16 = trunc i32 %15 to i8
  store i8 %16, ptr %3, align 1, !tbaa !7
  %17 = load i8, ptr %3, align 1, !tbaa !7
  %18 = zext i8 %17 to i32
  %19 = add nsw i32 %18, 26
  %20 = trunc i32 %19 to i8
  store i8 %20, ptr %3, align 1, !tbaa !7
  %21 = load ptr, ptr %2, align 8, !tbaa !14
  %22 = load i8, ptr %21, align 1, !tbaa !7
  %23 = sext i8 %22 to i32
  %24 = xor i32 %23, -1
  %25 = load i8, ptr %3, align 1, !tbaa !7
  %26 = zext i8 %25 to i32
  %27 = and i32 %26, %24
  %28 = trunc i32 %27 to i8
  store i8 %28, ptr %3, align 1, !tbaa !7
  %29 = load i8, ptr %3, align 1, !tbaa !7
  %30 = zext i8 %29 to i32
  %31 = ashr i32 %30, 2
  %32 = trunc i32 %31 to i8
  store i8 %32, ptr %3, align 1, !tbaa !7
  %33 = load i8, ptr %3, align 1, !tbaa !7
  %34 = zext i8 %33 to i32
  %35 = and i32 %34, 32
  %36 = trunc i32 %35 to i8
  store i8 %36, ptr %3, align 1, !tbaa !7
  %37 = load i8, ptr %3, align 1, !tbaa !7
  %38 = sext i8 %37 to i32
  %39 = load ptr, ptr %2, align 8, !tbaa !14
  %40 = load i8, ptr %39, align 1, !tbaa !7
  %41 = sext i8 %40 to i32
  %42 = add nsw i32 %41, %38
  %43 = trunc i32 %42 to i8
  store i8 %43, ptr %39, align 1, !tbaa !7
  call void @llvm.lifetime.end.p0(i64 1, ptr %3) #27
  ret void
}

; Function Attrs: inlinehint mustprogress nounwind uwtable
define linkonce_odr noundef nonnull align 8 dereferenceable(8) ptr @_ZSt3minImERKT_S2_S2_(ptr noundef nonnull align 8 dereferenceable(8) %0, ptr noundef nonnull align 8 dereferenceable(8) %1) #2 comdat {
  %3 = alloca ptr, align 8
  %4 = alloca ptr, align 8
  %5 = alloca ptr, align 8
  store ptr %0, ptr %4, align 8, !tbaa !73
  store ptr %1, ptr %5, align 8, !tbaa !73
  %6 = load ptr, ptr %5, align 8, !tbaa !73
  %7 = load i64, ptr %6, align 8, !tbaa !24
  %8 = load ptr, ptr %4, align 8, !tbaa !73
  %9 = load i64, ptr %8, align 8, !tbaa !24
  %10 = icmp ult i64 %7, %9
  br i1 %10, label %11, label %13

11:                                               ; preds = %2
  %12 = load ptr, ptr %5, align 8, !tbaa !73
  store ptr %12, ptr %3, align 8
  br label %15

13:                                               ; preds = %2
  %14 = load ptr, ptr %4, align 8, !tbaa !73
  store ptr %14, ptr %3, align 8
  br label %15

15:                                               ; preds = %13, %11
  %16 = load ptr, ptr %3, align 8
  ret ptr %16
}

; Function Attrs: mustprogress uwtable
define void @_ZN5folly12toLowerAsciiEPcm(ptr noundef %0, i64 noundef %1) #0 {
  %3 = alloca ptr, align 8
  %4 = alloca i64, align 8
  %5 = alloca i64, align 8
  %6 = alloca i64, align 8
  %7 = alloca i64, align 8
  store ptr %0, ptr %3, align 8, !tbaa !14
  store i64 %1, ptr %4, align 8, !tbaa !24
  call void @llvm.lifetime.start.p0(i64 8, ptr %5) #27
  %8 = load ptr, ptr %3, align 8, !tbaa !14
  %9 = ptrtoint ptr %8 to i64
  store i64 %9, ptr %5, align 8, !tbaa !24
  %10 = load i64, ptr %5, align 8, !tbaa !24
  %11 = and i64 %10, 3
  store i64 %11, ptr %5, align 8, !tbaa !24
  %12 = call noundef nonnull align 8 dereferenceable(8) ptr @_ZSt3minImERKT_S2_S2_(ptr noundef nonnull align 8 dereferenceable(8) %5, ptr noundef nonnull align 8 dereferenceable(8) %4)
  %13 = load i64, ptr %12, align 8, !tbaa !24
  store i64 %13, ptr %5, align 8, !tbaa !24
  call void @llvm.lifetime.start.p0(i64 8, ptr %6) #27
  store i64 0, ptr %6, align 8, !tbaa !24
  %14 = load i64, ptr %5, align 8, !tbaa !24
  %15 = icmp ne i64 %14, 0
  br i1 %15, label %16, label %32

16:                                               ; preds = %2
  call void @llvm.lifetime.start.p0(i64 8, ptr %7) #27
  %17 = load i64, ptr %5, align 8, !tbaa !24
  %18 = sub i64 4, %17
  store i64 %18, ptr %7, align 8, !tbaa !24
  %19 = call noundef nonnull align 8 dereferenceable(8) ptr @_ZSt3minImERKT_S2_S2_(ptr noundef nonnull align 8 dereferenceable(8) %7, ptr noundef nonnull align 8 dereferenceable(8) %4)
  %20 = load i64, ptr %19, align 8, !tbaa !24
  store i64 %20, ptr %5, align 8, !tbaa !24
  call void @llvm.lifetime.end.p0(i64 8, ptr %7) #27
  br label %21

21:                                               ; preds = %27, %16
  %22 = load ptr, ptr %3, align 8, !tbaa !14
  %23 = load i64, ptr %6, align 8, !tbaa !24
  %24 = getelementptr inbounds nuw i8, ptr %22, i64 %23
  call void @_ZN5folly12_GLOBAL__N_113toLowerAscii8ERc(ptr noundef nonnull align 1 dereferenceable(1) %24)
  %25 = load i64, ptr %6, align 8, !tbaa !24
  %26 = add i64 %25, 1
  store i64 %26, ptr %6, align 8, !tbaa !24
  br label %27

27:                                               ; preds = %21
  %28 = load i64, ptr %6, align 8, !tbaa !24
  %29 = load i64, ptr %5, align 8, !tbaa !24
  %30 = icmp ult i64 %28, %29
  br i1 %30, label %21, label %31, !llvm.loop !231

31:                                               ; preds = %27
  br label %32

32:                                               ; preds = %31, %2
  %33 = load ptr, ptr %3, align 8, !tbaa !14
  %34 = load i64, ptr %6, align 8, !tbaa !24
  %35 = getelementptr inbounds nuw i8, ptr %33, i64 %34
  %36 = ptrtoint ptr %35 to i64
  store i64 %36, ptr %5, align 8, !tbaa !24
  %37 = load i64, ptr %5, align 8, !tbaa !24
  %38 = and i64 %37, 7
  store i64 %38, ptr %5, align 8, !tbaa !24
  %39 = load i64, ptr %5, align 8, !tbaa !24
  %40 = icmp ne i64 %39, 0
  br i1 %40, label %41, label %52

41:                                               ; preds = %32
  %42 = load i64, ptr %6, align 8, !tbaa !24
  %43 = add i64 %42, 4
  %44 = load i64, ptr %4, align 8, !tbaa !24
  %45 = icmp ule i64 %43, %44
  br i1 %45, label %46, label %52

46:                                               ; preds = %41
  %47 = load ptr, ptr %3, align 8, !tbaa !14
  %48 = load i64, ptr %6, align 8, !tbaa !24
  %49 = getelementptr inbounds nuw i8, ptr %47, i64 %48
  call void @_ZN5folly12_GLOBAL__N_114toLowerAscii32ERj(ptr noundef nonnull align 4 dereferenceable(4) %49)
  %50 = load i64, ptr %6, align 8, !tbaa !24
  %51 = add i64 %50, 4
  store i64 %51, ptr %6, align 8, !tbaa !24
  br label %52

52:                                               ; preds = %46, %41, %32
  br label %53

53:                                               ; preds = %58, %52
  %54 = load i64, ptr %6, align 8, !tbaa !24
  %55 = add i64 %54, 8
  %56 = load i64, ptr %4, align 8, !tbaa !24
  %57 = icmp ule i64 %55, %56
  br i1 %57, label %58, label %64

58:                                               ; preds = %53
  %59 = load ptr, ptr %3, align 8, !tbaa !14
  %60 = load i64, ptr %6, align 8, !tbaa !24
  %61 = getelementptr inbounds nuw i8, ptr %59, i64 %60
  call void @_ZN5folly12_GLOBAL__N_114toLowerAscii64ERm(ptr noundef nonnull align 8 dereferenceable(8) %61)
  %62 = load i64, ptr %6, align 8, !tbaa !24
  %63 = add i64 %62, 8
  store i64 %63, ptr %6, align 8, !tbaa !24
  br label %53, !llvm.loop !232

64:                                               ; preds = %53
  br label %65

65:                                               ; preds = %70, %64
  %66 = load i64, ptr %6, align 8, !tbaa !24
  %67 = add i64 %66, 4
  %68 = load i64, ptr %4, align 8, !tbaa !24
  %69 = icmp ule i64 %67, %68
  br i1 %69, label %70, label %76

70:                                               ; preds = %65
  %71 = load ptr, ptr %3, align 8, !tbaa !14
  %72 = load i64, ptr %6, align 8, !tbaa !24
  %73 = getelementptr inbounds nuw i8, ptr %71, i64 %72
  call void @_ZN5folly12_GLOBAL__N_114toLowerAscii32ERj(ptr noundef nonnull align 4 dereferenceable(4) %73)
  %74 = load i64, ptr %6, align 8, !tbaa !24
  %75 = add i64 %74, 4
  store i64 %75, ptr %6, align 8, !tbaa !24
  br label %65, !llvm.loop !233

76:                                               ; preds = %65
  br label %77

77:                                               ; preds = %81, %76
  %78 = load i64, ptr %6, align 8, !tbaa !24
  %79 = load i64, ptr %4, align 8, !tbaa !24
  %80 = icmp ult i64 %78, %79
  br i1 %80, label %81, label %87

81:                                               ; preds = %77
  %82 = load ptr, ptr %3, align 8, !tbaa !14
  %83 = load i64, ptr %6, align 8, !tbaa !24
  %84 = getelementptr inbounds nuw i8, ptr %82, i64 %83
  call void @_ZN5folly12_GLOBAL__N_113toLowerAscii8ERc(ptr noundef nonnull align 1 dereferenceable(1) %84)
  %85 = load i64, ptr %6, align 8, !tbaa !24
  %86 = add i64 %85, 1
  store i64 %86, ptr %6, align 8, !tbaa !24
  br label %77, !llvm.loop !234

87:                                               ; preds = %77
  call void @llvm.lifetime.end.p0(i64 8, ptr %6) #27
  call void @llvm.lifetime.end.p0(i64 8, ptr %5) #27
  ret void
}