; Function Attrs: mustprogress nofree norecurse nosync nounwind memory(argmem: readwrite) uwtable
define void @_ZN5folly12toLowerAsciiEPcm(ptr noundef %0, i64 noundef %1) local_unnamed_addr #21 {
  %3 = ptrtoint ptr %0 to i64
  %4 = and i64 %3, 3
  %.sroa.speculated37 = tail call i64 @llvm.umin.i64(i64 %1, i64 %4)
  %.not = icmp eq i64 %.sroa.speculated37, 0
  br i1 %.not, label %.loopexit, label %5

5:                                                ; preds = %2
  %6 = sub nuw nsw i64 4, %.sroa.speculated37
  %.sroa.speculated = tail call i64 @llvm.umin.i64(i64 %1, i64 %6)
  %umax = tail call i64 @llvm.umax.i64(i64 %.sroa.speculated, i64 1)
  br label %7

7:                                                ; preds = %7, %5
  %.1 = phi i64 [ 0, %5 ], [ %16, %7 ]
  %8 = getelementptr inbounds nuw i8, ptr %0, i64 %.1
  %9 = load i8, ptr %8, align 1, !tbaa !7
  %narrow.i = add i8 %9, 37
  %10 = and i8 %narrow.i, 126
  %narrow9.i = add nuw i8 %10, 26
  %11 = xor i8 %9, -1
  %12 = and i8 %narrow9.i, %11
  %13 = lshr i8 %12, 2
  %14 = and i8 %13, 32
  %15 = add i8 %14, %9
  store i8 %15, ptr %8, align 1, !tbaa !7
  %16 = add nuw nsw i64 %.1, 1
  %exitcond.not = icmp eq i64 %16, %umax
  br i1 %exitcond.not, label %.loopexit, label %7, !llvm.loop !87

.loopexit:                                        ; preds = %7, %2
  %.0 = phi i64 [ 0, %2 ], [ %umax, %7 ]
  %17 = getelementptr inbounds nuw i8, ptr %0, i64 %.0
  %18 = ptrtoint ptr %17 to i64
  %19 = and i64 %18, 7
  %.not26 = icmp eq i64 %19, 0
  br i1 %.not26, label %33, label %20

20:                                               ; preds = %.loopexit
  %21 = add nuw nsw i64 %.0, 4
  %.not27 = icmp ugt i64 %21, %1
  br i1 %.not27, label %33, label %22

22:                                               ; preds = %20
  %23 = load i32, ptr %17, align 4, !tbaa !82
  %24 = and i32 %23, 2139062143
  %25 = add nuw i32 %24, 623191333
  %26 = and i32 %25, 2139062142
  %27 = add nuw i32 %26, 437918234
  %28 = xor i32 %23, -1
  %29 = and i32 %27, %28
  %30 = lshr i32 %29, 2
  %31 = and i32 %30, 538976288
  %32 = add i32 %31, %23
  store i32 %32, ptr %17, align 4, !tbaa !82
  br label %33

33:                                               ; preds = %22, %20, %.loopexit
  %.2 = phi i64 [ %21, %22 ], [ %.0, %20 ], [ %.0, %.loopexit ]
  %34 = add nuw nsw i64 %.2, 8
  %.not2851 = icmp ugt i64 %34, %1
  br i1 %.not2851, label %.preheader50, label %.lr.ph

.preheader50:                                     ; preds = %.lr.ph, %33
  %.3.lcssa = phi i64 [ %.2, %33 ], [ %36, %.lr.ph ]
  %35 = add i64 %.3.lcssa, 4
  %.not2953 = icmp ugt i64 %35, %1
  br i1 %.not2953, label %.preheader, label %.lr.ph55

.lr.ph:                                           ; preds = %33, %.lr.ph
  %36 = phi i64 [ %48, %.lr.ph ], [ %34, %33 ]
  %.352 = phi i64 [ %36, %.lr.ph ], [ %.2, %33 ]
  %37 = getelementptr inbounds nuw i8, ptr %0, i64 %.352
  %38 = load i64, ptr %37, align 8, !tbaa !29
  %39 = and i64 %38, 9187201950435737471
  %40 = add nuw i64 %39, 2676586395008836901
  %41 = and i64 %40, 9187201950435737470
  %42 = add nuw i64 %41, 1880844493789993498
  %43 = xor i64 %38, -1
  %44 = and i64 %42, %43
  %45 = lshr i64 %44, 2
  %46 = and i64 %45, 2314885530818453536
  %47 = add i64 %46, %38
  store i64 %47, ptr %37, align 8, !tbaa !29
  %48 = add i64 %36, 8
  %.not28 = icmp ugt i64 %48, %1
  br i1 %.not28, label %.preheader50, label %.lr.ph, !llvm.loop !88

.preheader:                                       ; preds = %.lr.ph55, %.preheader50
  %.4.lcssa = phi i64 [ %.3.lcssa, %.preheader50 ], [ %50, %.lr.ph55 ]
  %49 = icmp ult i64 %.4.lcssa, %1
  br i1 %49, label %.lr.ph58, label %._crit_edge

.lr.ph55:                                         ; preds = %.preheader50, %.lr.ph55
  %50 = phi i64 [ %62, %.lr.ph55 ], [ %35, %.preheader50 ]
  %.454 = phi i64 [ %50, %.lr.ph55 ], [ %.3.lcssa, %.preheader50 ]
  %51 = getelementptr inbounds nuw i8, ptr %0, i64 %.454
  %52 = load i32, ptr %51, align 4, !tbaa !82
  %53 = and i32 %52, 2139062143
  %54 = add nuw i32 %53, 623191333
  %55 = and i32 %54, 2139062142
  %56 = add nuw i32 %55, 437918234
  %57 = xor i32 %52, -1
  %58 = and i32 %56, %57
  %59 = lshr i32 %58, 2
  %60 = and i32 %59, 538976288
  %61 = add i32 %60, %52
  store i32 %61, ptr %51, align 4, !tbaa !82
  %62 = add i64 %50, 4
  %.not29 = icmp ugt i64 %62, %1
  br i1 %.not29, label %.preheader, label %.lr.ph55, !llvm.loop !89

.lr.ph58:                                         ; preds = %.preheader, %.lr.ph58
  %.557 = phi i64 [ %71, %.lr.ph58 ], [ %.4.lcssa, %.preheader ]
  %63 = getelementptr inbounds nuw i8, ptr %0, i64 %.557
  %64 = load i8, ptr %63, align 1, !tbaa !7
  %narrow.i31 = add i8 %64, 37
  %65 = and i8 %narrow.i31, 126
  %narrow9.i32 = add nuw i8 %65, 26
  %66 = xor i8 %64, -1
  %67 = and i8 %narrow9.i32, %66
  %68 = lshr i8 %67, 2
  %69 = and i8 %68, 32
  %70 = add i8 %69, %64
  store i8 %70, ptr %63, align 1, !tbaa !7
  %71 = add nuw i64 %.557, 1
  %exitcond61.not = icmp eq i64 %71, %1
  br i1 %exitcond61.not, label %._crit_edge, label %.lr.ph58, !llvm.loop !90

._crit_edge:                                      ; preds = %.lr.ph58, %.preheader
  ret void
}